target datalayout = "e-m:e-p270:32:32-p271:32:32-p272:64:64-i64:64-i128:128-f80:128-n8:16:32:64-S128"
target triple = "x86_64-pc-linux-gnu"

%struct.Abc_ZddMan_ = type { i32, i32, i32, i32, i32, i32, ptr, ptr, ptr, ptr, i32, i32, i64, ptr, ptr, ptr }
%struct.Abc_ZddObj_ = type { i32, i32, i32 }
%struct.Abc_ZddEnt_ = type { i32, i32, i32, i32 }

@.str.16 = private unnamed_addr constant [51 x i8] c"Aborting because the number of nodes exceeded %d.\0A\00", align 1
@stdout = external global ptr, align 8

; Function Attrs: inlinehint nounwind uwtable
define internal i32 @Abc_ZddHash(i32 noundef %0, i32 noundef %1, i32 noundef %2) #2 {
  %4 = alloca i32, align 4
  %5 = alloca i32, align 4
  %6 = alloca i32, align 4
  store i32 %0, ptr %4, align 4, !tbaa !10
  store i32 %1, ptr %5, align 4, !tbaa !10
  store i32 %2, ptr %6, align 4, !tbaa !10
  %7 = load i32, ptr %4, align 4, !tbaa !10
  %8 = mul nsw i32 12582917, %7
  %9 = load i32, ptr %5, align 4, !tbaa !10
  %10 = mul nsw i32 4256249, %9
  %11 = add nsw i32 %8, %10
  %12 = load i32, ptr %6, align 4, !tbaa !10
  %13 = mul nsw i32 741457, %12
  %14 = add nsw i32 %11, %13
  ret i32 %14
}

; Function Attrs: inlinehint nounwind uwtable
define internal i32 @Abc_ZddCacheInsert(ptr noundef %0, i32 noundef %1, i32 noundef %2, i32 noundef %3, i32 noundef %4) #2 {
  %6 = alloca ptr, align 8
  %7 = alloca i32, align 4
  %8 = alloca i32, align 4
  %9 = alloca i32, align 4
  %10 = alloca i32, align 4
  %11 = alloca ptr, align 8
  store ptr %0, ptr %6, align 8, !tbaa !3
  store i32 %1, ptr %7, align 4, !tbaa !10
  store i32 %2, ptr %8, align 4, !tbaa !10
  store i32 %3, ptr %9, align 4, !tbaa !10
  store i32 %4, ptr %10, align 4, !tbaa !10
  call void @llvm.lifetime.start.p0(i64 8, ptr %11) #12
  %12 = load ptr, ptr %6, align 8, !tbaa !3
  %13 = getelementptr inbounds nuw %struct.Abc_ZddMan_, ptr %12, i32 0, i32 8
  %14 = load ptr, ptr %13, align 8, !tbaa !34
  %15 = load i32, ptr %7, align 4, !tbaa !10
  %16 = load i32, ptr %8, align 4, !tbaa !10
  %17 = load i32, ptr %9, align 4, !tbaa !10
  %18 = call i32 @Abc_ZddHash(i32 noundef %15, i32 noundef %16, i32 noundef %17)
  %19 = load ptr, ptr %6, align 8, !tbaa !3
  %20 = getelementptr inbounds nuw %struct.Abc_ZddMan_, ptr %19, i32 0, i32 5
  %21 = load i32, ptr %20, align 4, !tbaa !33
  %22 = and i32 %18, %21
  %23 = zext i32 %22 to i64
  %24 = getelementptr inbounds nuw %struct.Abc_ZddEnt_, ptr %14, i64 %23
  store ptr %24, ptr %11, align 8, !tbaa !47
  %25 = load i32, ptr %7, align 4, !tbaa !10
  %26 = load ptr, ptr %11, align 8, !tbaa !47
  %27 = getelementptr inbounds nuw %struct.Abc_ZddEnt_, ptr %26, i32 0, i32 0
  store i32 %25, ptr %27, align 4, !tbaa !48
  %28 = load i32, ptr %8, align 4, !tbaa !10
  %29 = load ptr, ptr %11, align 8, !tbaa !47
  %30 = getelementptr inbounds nuw %struct.Abc_ZddEnt_, ptr %29, i32 0, i32 1
  store i32 %28, ptr %30, align 4, !tbaa !50
  %31 = load i32, ptr %9, align 4, !tbaa !10
  %32 = load ptr, ptr %11, align 8, !tbaa !47
  %33 = getelementptr inbounds nuw %struct.Abc_ZddEnt_, ptr %32, i32 0, i32 2
  store i32 %31, ptr %33, align 4, !tbaa !51
  %34 = load i32, ptr %10, align 4, !tbaa !10
  %35 = load ptr, ptr %11, align 8, !tbaa !47
  %36 = getelementptr inbounds nuw %struct.Abc_ZddEnt_, ptr %35, i32 0, i32 3
  store i32 %34, ptr %36, align 4, !tbaa !52
  %37 = load ptr, ptr %6, align 8, !tbaa !3
  %38 = getelementptr inbounds nuw %struct.Abc_ZddMan_, ptr %37, i32 0, i32 11
  %39 = load i32, ptr %38, align 4, !tbaa !45
  %40 = add nsw i32 %39, 1
  store i32 %40, ptr %38, align 4, !tbaa !45
  %41 = load i32, ptr %10, align 4, !tbaa !10
  call void @llvm.lifetime.end.p0(i64 8, ptr %11) #12
  ret i32 %41
}

; Function Attrs: inlinehint nounwind uwtable
define internal i32 @Abc_ZddUniqueCreate(ptr noundef %0, i32 noundef %1, i32 noundef %2, i32 noundef %3) #2 {
  %5 = alloca i32, align 4
  %6 = alloca ptr, align 8
  %7 = alloca i32, align 4
  %8 = alloca i32, align 4
  %9 = alloca i32, align 4
  %10 = alloca ptr, align 8
  %11 = alloca i32, align 4
  store ptr %0, ptr %6, align 8, !tbaa !3
  store i32 %1, ptr %7, align 4, !tbaa !10
  store i32 %2, ptr %8, align 4, !tbaa !10
  store i32 %3, ptr %9, align 4, !tbaa !10
  %12 = load i32, ptr %8, align 4, !tbaa !10
  %13 = icmp eq i32 %12, 0
  br i1 %13, label %14, label %16

14:                                               ; preds = %4
  %15 = load i32, ptr %9, align 4, !tbaa !10
  store i32 %15, ptr %5, align 4
  br label %136

16:                                               ; preds = %4
  call void @llvm.lifetime.start.p0(i64 8, ptr %10) #12
  %17 = load ptr, ptr %6, align 8, !tbaa !3
  %18 = getelementptr inbounds nuw %struct.Abc_ZddMan_, ptr %17, i32 0, i32 6
  %19 = load ptr, ptr %18, align 8, !tbaa !16
  %20 = load i32, ptr %7, align 4, !tbaa !10
  %21 = load i32, ptr %8, align 4, !tbaa !10
  %22 = load i32, ptr %9, align 4, !tbaa !10
  %23 = call i32 @Abc_ZddHash(i32 noundef %20, i32 noundef %21, i32 noundef %22)
  %24 = load ptr, ptr %6, align 8, !tbaa !3
  %25 = getelementptr inbounds nuw %struct.Abc_ZddMan_, ptr %24, i32 0, i32 4
  %26 = load i32, ptr %25, align 8, !tbaa !21
  %27 = and i32 %23, %26
  %28 = zext i32 %27 to i64
  %29 = getelementptr inbounds nuw i32, ptr %19, i64 %28
  store ptr %29, ptr %10, align 8, !tbaa !8
  br label %30

30:                                               ; preds = %74, %16
  %31 = load ptr, ptr %10, align 8, !tbaa !8
  %32 = load i32, ptr %31, align 4, !tbaa !10
  %33 = icmp ne i32 %32, 0
  br i1 %33, label %34, label %82

34:                                               ; preds = %30
  %35 = load ptr, ptr %6, align 8, !tbaa !3
  %36 = getelementptr inbounds nuw %struct.Abc_ZddMan_, ptr %35, i32 0, i32 9
  %37 = load ptr, ptr %36, align 8, !tbaa !22
  %38 = load ptr, ptr %10, align 8, !tbaa !8
  %39 = load i32, ptr %38, align 4, !tbaa !10
  %40 = sext i32 %39 to i64
  %41 = getelementptr inbounds %struct.Abc_ZddObj_, ptr %37, i64 %40
  %42 = load i32, ptr %41, align 4
  %43 = and i32 %42, 2147483647
  %44 = load i32, ptr %7, align 4, !tbaa !10
  %45 = icmp eq i32 %43, %44
  br i1 %45, label %46, label %73

46:                                               ; preds = %34
  %47 = load ptr, ptr %6, align 8, !tbaa !3
  %48 = getelementptr inbounds nuw %struct.Abc_ZddMan_, ptr %47, i32 0, i32 9
  %49 = load ptr, ptr %48, align 8, !tbaa !22
  %50 = load ptr, ptr %10, align 8, !tbaa !8
  %51 = load i32, ptr %50, align 4, !tbaa !10
  %52 = sext i32 %51 to i64
  %53 = getelementptr inbounds %struct.Abc_ZddObj_, ptr %49, i64 %52
  %54 = getelementptr inbounds nuw %struct.Abc_ZddObj_, ptr %53, i32 0, i32 1
  %55 = load i32, ptr %54, align 4, !tbaa !23
  %56 = load i32, ptr %8, align 4, !tbaa !10
  %57 = icmp eq i32 %55, %56
  br i1 %57, label %58, label %73

58:                                               ; preds = %46
  %59 = load ptr, ptr %6, align 8, !tbaa !3
  %60 = getelementptr inbounds nuw %struct.Abc_ZddMan_, ptr %59, i32 0, i32 9
  %61 = load ptr, ptr %60, align 8, !tbaa !22
  %62 = load ptr, ptr %10, align 8, !tbaa !8
  %63 = load i32, ptr %62, align 4, !tbaa !10
  %64 = sext i32 %63 to i64
  %65 = getelementptr inbounds %struct.Abc_ZddObj_, ptr %61, i64 %64
  %66 = getelementptr inbounds nuw %struct.Abc_ZddObj_, ptr %65, i32 0, i32 2
  %67 = load i32, ptr %66, align 4, !tbaa !25
  %68 = load i32, ptr %9, align 4, !tbaa !10
  %69 = icmp eq i32 %67, %68
  br i1 %69, label %70, label %73

70:                                               ; preds = %58
  %71 = load ptr, ptr %10, align 8, !tbaa !8
  %72 = load i32, ptr %71, align 4, !tbaa !10
  store i32 %72, ptr %5, align 4
  store i32 1, ptr %11, align 4
  br label %135

73:                                               ; preds = %58, %46, %34
  br label %74

74:                                               ; preds = %73
  %75 = load ptr, ptr %6, align 8, !tbaa !3
  %76 = getelementptr inbounds nuw %struct.Abc_ZddMan_, ptr %75, i32 0, i32 7
  %77 = load ptr, ptr %76, align 8, !tbaa !26
  %78 = load ptr, ptr %10, align 8, !tbaa !8
  %79 = load i32, ptr %78, align 4, !tbaa !10
  %80 = sext i32 %79 to i64
  %81 = getelementptr inbounds i32, ptr %77, i64 %80
  store ptr %81, ptr %10, align 8, !tbaa !8
  br label %30, !llvm.loop !27

82:                                               ; preds = %30
  %83 = load ptr, ptr %6, align 8, !tbaa !3
  %84 = getelementptr inbounds nuw %struct.Abc_ZddMan_, ptr %83, i32 0, i32 1
  %85 = load i32, ptr %84, align 4, !tbaa !28
  %86 = load ptr, ptr %6, align 8, !tbaa !3
  %87 = getelementptr inbounds nuw %struct.Abc_ZddMan_, ptr %86, i32 0, i32 2
  %88 = load i32, ptr %87, align 8, !tbaa !29
  %89 = icmp eq i32 %85, %88
  br i1 %89, label %90, label %97

90:                                               ; preds = %82
  %91 = load ptr, ptr %6, align 8, !tbaa !3
  %92 = getelementptr inbounds nuw %struct.Abc_ZddMan_, ptr %91, i32 0, i32 2
  %93 = load i32, ptr %92, align 8, !tbaa !29
  %94 = call i32 (ptr, ...) @printf(ptr noundef @.str.16, i32 noundef %93)
  %95 = load ptr, ptr @stdout, align 8, !tbaa !30
  %96 = call i32 @fflush(ptr noundef %95)
  br label %97

97:                                               ; preds = %90, %82
  %98 = load ptr, ptr %6, align 8, !tbaa !3
  %99 = getelementptr inbounds nuw %struct.Abc_ZddMan_, ptr %98, i32 0, i32 1
  %100 = load i32, ptr %99, align 4, !tbaa !28
  %101 = add nsw i32 %100, 1
  store i32 %101, ptr %99, align 4, !tbaa !28
  %102 = load ptr, ptr %10, align 8, !tbaa !8
  store i32 %100, ptr %102, align 4, !tbaa !10
  %103 = load i32, ptr %7, align 4, !tbaa !10
  %104 = load ptr, ptr %6, align 8, !tbaa !3
  %105 = getelementptr inbounds nuw %struct.Abc_ZddMan_, ptr %104, i32 0, i32 9
  %106 = load ptr, ptr %105, align 8, !tbaa !22
  %107 = load ptr, ptr %10, align 8, !tbaa !8
  %108 = load i32, ptr %107, align 4, !tbaa !10
  %109 = sext i32 %108 to i64
  %110 = getelementptr inbounds %struct.Abc_ZddObj_, ptr %106, i64 %109
  %111 = load i32, ptr %110, align 4
  %112 = and i32 %103, 2147483647
  %113 = and i32 %111, -2147483648
  %114 = or i32 %113, %112
  store i32 %114, ptr %110, align 4
  %115 = load i32, ptr %8, align 4, !tbaa !10
  %116 = load ptr, ptr %6, align 8, !tbaa !3
  %117 = getelementptr inbounds nuw %struct.Abc_ZddMan_, ptr %116, i32 0, i32 9
  %118 = load ptr, ptr %117, align 8, !tbaa !22
  %119 = load ptr, ptr %10, align 8, !tbaa !8
  %120 = load i32, ptr %119, align 4, !tbaa !10
  %121 = sext i32 %120 to i64
  %122 = getelementptr inbounds %struct.Abc_ZddObj_, ptr %118, i64 %121
  %123 = getelementptr inbounds nuw %struct.Abc_ZddObj_, ptr %122, i32 0, i32 1
  store i32 %115, ptr %123, align 4, !tbaa !23
  %124 = load i32, ptr %9, align 4, !tbaa !10
  %125 = load ptr, ptr %6, align 8, !tbaa !3
  %126 = getelementptr inbounds nuw %struct.Abc_ZddMan_, ptr %125, i32 0, i32 9
  %127 = load ptr, ptr %126, align 8, !tbaa !22
  %128 = load ptr, ptr %10, align 8, !tbaa !8
  %129 = load i32, ptr %128, align 4, !tbaa !10
  %130 = sext i32 %129 to i64
  %131 = getelementptr inbounds %struct.Abc_ZddObj_, ptr %127, i64 %130
  %132 = getelementptr inbounds nuw %struct.Abc_ZddObj_, ptr %131, i32 0, i32 2
  store i32 %124, ptr %132, align 4, !tbaa !25
  %133 = load ptr, ptr %10, align 8, !tbaa !8
  %134 = load i32, ptr %133, align 4, !tbaa !10
  store i32 %134, ptr %5, align 4
  store i32 1, ptr %11, align 4
  br label %135

135:                                              ; preds = %97, %70
  call void @llvm.lifetime.end.p0(i64 8, ptr %10) #12
  br label %136

136:                                              ; preds = %135, %14
  %137 = load i32, ptr %5, align 4
  ret i32 %137
}

; Function Attrs: inlinehint nounwind uwtable
define internal ptr @Abc_ZddNode(ptr noundef %0, i32 noundef %1) #2 {
  %3 = alloca ptr, align 8
  %4 = alloca i32, align 4
  store ptr %0, ptr %3, align 8, !tbaa !3
  store i32 %1, ptr %4, align 4, !tbaa !10
  %5 = load ptr, ptr %3, align 8, !tbaa !3
  %6 = getelementptr inbounds nuw %struct.Abc_ZddMan_, ptr %5, i32 0, i32 9
  %7 = load ptr, ptr %6, align 8, !tbaa !22
  %8 = load i32, ptr %4, align 4, !tbaa !10
  %9 = sext i32 %8 to i64
  %10 = getelementptr inbounds %struct.Abc_ZddObj_, ptr %7, i64 %9
  ret ptr %10
}

; Function Attrs: inlinehint nounwind uwtable
define internal i32 @Abc_ZddCacheLookup(ptr noundef %0, i32 noundef %1, i32 noundef %2, i32 noundef %3) #2 {
  %5 = alloca ptr, align 8
  %6 = alloca i32, align 4
  %7 = alloca i32, align 4
  %8 = alloca i32, align 4
  %9 = alloca ptr, align 8
  store ptr %0, ptr %5, align 8, !tbaa !3
  store i32 %1, ptr %6, align 4, !tbaa !10
  store i32 %2, ptr %7, align 4, !tbaa !10
  store i32 %3, ptr %8, align 4, !tbaa !10
  call void @llvm.lifetime.start.p0(i64 8, ptr %9) #12
  %10 = load ptr, ptr %5, align 8, !tbaa !3
  %11 = getelementptr inbounds nuw %struct.Abc_ZddMan_, ptr %10, i32 0, i32 8
  %12 = load ptr, ptr %11, align 8, !tbaa !34
  %13 = load i32, ptr %6, align 4, !tbaa !10
  %14 = load i32, ptr %7, align 4, !tbaa !10
  %15 = load i32, ptr %8, align 4, !tbaa !10
  %16 = call i32 @Abc_ZddHash(i32 noundef %13, i32 noundef %14, i32 noundef %15)
  %17 = load ptr, ptr %5, align 8, !tbaa !3
  %18 = getelementptr inbounds nuw %struct.Abc_ZddMan_, ptr %17, i32 0, i32 5
  %19 = load i32, ptr %18, align 4, !tbaa !33
  %20 = and i32 %16, %19
  %21 = zext i32 %20 to i64
  %22 = getelementptr inbounds nuw %struct.Abc_ZddEnt_, ptr %12, i64 %21
  store ptr %22, ptr %9, align 8, !tbaa !47
  %23 = load ptr, ptr %5, align 8, !tbaa !3
  %24 = getelementptr inbounds nuw %struct.Abc_ZddMan_, ptr %23, i32 0, i32 10
  %25 = load i32, ptr %24, align 8, !tbaa !44
  %26 = add nsw i32 %25, 1
  store i32 %26, ptr %24, align 8, !tbaa !44
  %27 = load ptr, ptr %9, align 8, !tbaa !47
  %28 = getelementptr inbounds nuw %struct.Abc_ZddEnt_, ptr %27, i32 0, i32 0
  %29 = load i32, ptr %28, align 4, !tbaa !48
  %30 = load i32, ptr %6, align 4, !tbaa !10
  %31 = icmp eq i32 %29, %30
  br i1 %31, label %32, label %48

32:                                               ; preds = %4
  %33 = load ptr, ptr %9, align 8, !tbaa !47
  %34 = getelementptr inbounds nuw %struct.Abc_ZddEnt_, ptr %33, i32 0, i32 1
  %35 = load i32, ptr %34, align 4, !tbaa !50
  %36 = load i32, ptr %7, align 4, !tbaa !10
  %37 = icmp eq i32 %35, %36
  br i1 %37, label %38, label %48

38:                                               ; preds = %32
  %39 = load ptr, ptr %9, align 8, !tbaa !47
  %40 = getelementptr inbounds nuw %struct.Abc_ZddEnt_, ptr %39, i32 0, i32 2
  %41 = load i32, ptr %40, align 4, !tbaa !51
  %42 = load i32, ptr %8, align 4, !tbaa !10
  %43 = icmp eq i32 %41, %42
  br i1 %43, label %44, label %48

44:                                               ; preds = %38
  %45 = load ptr, ptr %9, align 8, !tbaa !47
  %46 = getelementptr inbounds nuw %struct.Abc_ZddEnt_, ptr %45, i32 0, i32 3
  %47 = load i32, ptr %46, align 4, !tbaa !52
  br label %49

48:                                               ; preds = %38, %32, %4
  br label %49

49:                                               ; preds = %48, %44
  %50 = phi i32 [ %47, %44 ], [ -1, %48 ]
  call void @llvm.lifetime.end.p0(i64 8, ptr %9) #12
  ret i32 %50
}

; Function Attrs: nounwind uwtable
define i32 @Abc_ZddThresh(ptr noundef %0, i32 noundef %1, i32 noundef %2) #0 {
  %4 = alloca i32, align 4
  %5 = alloca ptr, align 8
  %6 = alloca i32, align 4
  %7 = alloca i32, align 4
  %8 = alloca ptr, align 8
  %9 = alloca i32, align 4
  %10 = alloca i32, align 4
  %11 = alloca i32, align 4
  %12 = alloca i32, align 4
  store ptr %0, ptr %5, align 8, !tbaa !3
  store i32 %1, ptr %6, align 4, !tbaa !10
  store i32 %2, ptr %7, align 4, !tbaa !10
  call void @llvm.lifetime.start.p0(i64 8, ptr %8) #12
  call void @llvm.lifetime.start.p0(i64 4, ptr %9) #12
  call void @llvm.lifetime.start.p0(i64 4, ptr %10) #12
  call void @llvm.lifetime.start.p0(i64 4, ptr %11) #12
  %13 = load i32, ptr %6, align 4, !tbaa !10
  %14 = icmp slt i32 %13, 2
  br i1 %14, label %15, label %17

15:                                               ; preds = %3
  %16 = load i32, ptr %6, align 4, !tbaa !10
  store i32 %16, ptr %4, align 4
  store i32 1, ptr %12, align 4
  br label %58

17:                                               ; preds = %3
  %18 = load i32, ptr %7, align 4, !tbaa !10
  %19 = icmp eq i32 %18, 0
  br i1 %19, label %20, label %21

20:                                               ; preds = %17
  store i32 0, ptr %4, align 4
  store i32 1, ptr %12, align 4
  br label %58

21:                                               ; preds = %17
  %22 = load ptr, ptr %5, align 8, !tbaa !3
  %23 = load i32, ptr %6, align 4, !tbaa !10
  %24 = load i32, ptr %7, align 4, !tbaa !10
  %25 = call i32 @Abc_ZddCacheLookup(ptr noundef %22, i32 noundef %23, i32 noundef %24, i32 noundef 9)
  store i32 %25, ptr %11, align 4, !tbaa !10
  %26 = icmp sge i32 %25, 0
  br i1 %26, label %27, label %29

27:                                               ; preds = %21
  %28 = load i32, ptr %11, align 4, !tbaa !10
  store i32 %28, ptr %4, align 4
  store i32 1, ptr %12, align 4
  br label %58

29:                                               ; preds = %21
  %30 = load ptr, ptr %5, align 8, !tbaa !3
  %31 = load i32, ptr %6, align 4, !tbaa !10
  %32 = call ptr @Abc_ZddNode(ptr noundef %30, i32 noundef %31)
  store ptr %32, ptr %8, align 8, !tbaa !46
  %33 = load ptr, ptr %5, align 8, !tbaa !3
  %34 = load ptr, ptr %8, align 8, !tbaa !46
  %35 = getelementptr inbounds nuw %struct.Abc_ZddObj_, ptr %34, i32 0, i32 2
  %36 = load i32, ptr %35, align 4, !tbaa !25
  %37 = load i32, ptr %7, align 4, !tbaa !10
  %38 = call i32 @Abc_ZddThresh(ptr noundef %33, i32 noundef %36, i32 noundef %37)
  store i32 %38, ptr %9, align 4, !tbaa !10
  %39 = load ptr, ptr %5, align 8, !tbaa !3
  %40 = load ptr, ptr %8, align 8, !tbaa !46
  %41 = getelementptr inbounds nuw %struct.Abc_ZddObj_, ptr %40, i32 0, i32 1
  %42 = load i32, ptr %41, align 4, !tbaa !23
  %43 = load i32, ptr %7, align 4, !tbaa !10
  %44 = sub nsw i32 %43, 1
  %45 = call i32 @Abc_ZddThresh(ptr noundef %39, i32 noundef %42, i32 noundef %44)
  store i32 %45, ptr %10, align 4, !tbaa !10
  %46 = load ptr, ptr %5, align 8, !tbaa !3
  %47 = load ptr, ptr %8, align 8, !tbaa !46
  %48 = load i32, ptr %47, align 4
  %49 = and i32 %48, 2147483647
  %50 = load i32, ptr %10, align 4, !tbaa !10
  %51 = load i32, ptr %9, align 4, !tbaa !10
  %52 = call i32 @Abc_ZddUniqueCreate(ptr noundef %46, i32 noundef %49, i32 noundef %50, i32 noundef %51)
  store i32 %52, ptr %11, align 4, !tbaa !10
  %53 = load ptr, ptr %5, align 8, !tbaa !3
  %54 = load i32, ptr %6, align 4, !tbaa !10
  %55 = load i32, ptr %7, align 4, !tbaa !10
  %56 = load i32, ptr %11, align 4, !tbaa !10
  %57 = call i32 @Abc_ZddCacheInsert(ptr noundef %53, i32 noundef %54, i32 noundef %55, i32 noundef 9, i32 noundef %56)
  store i32 %57, ptr %4, align 4
  store i32 1, ptr %12, align 4
  br label %58

58:                                               ; preds = %29, %27, %20, %15
  call void @llvm.lifetime.end.p0(i64 4, ptr %11) #12
  call void @llvm.lifetime.end.p0(i64 4, ptr %10) #12
  call void @llvm.lifetime.end.p0(i64 4, ptr %9) #12
  call void @llvm.lifetime.end.p0(i64 8, ptr %8) #12
  %59 = load i32, ptr %4, align 4
  ret i32 %59
}