; Function Attrs: nofree nounwind uwtable
define i32 @Abc_ZddThresh(ptr noundef %0, i32 noundef %1, i32 noundef %2) local_unnamed_addr #0 {
  %4 = icmp slt i32 %1, 2
  br i1 %4, label %121, label %5

5:                                                ; preds = %3
  %6 = icmp eq i32 %2, 0
  br i1 %6, label %121, label %7

7:                                                ; preds = %5
  %8 = getelementptr inbounds nuw i8, ptr %0, i64 40
  %9 = load ptr, ptr %8, align 8, !tbaa !31
  %10 = mul nuw nsw i32 %1, 12582917
  %11 = mul nsw i32 %2, 4256249
  %12 = add nuw i32 %10, 6673113
  %13 = add i32 %12, %11
  %14 = getelementptr inbounds nuw i8, ptr %0, i64 20
  %15 = load i32, ptr %14, align 4, !tbaa !30
  %16 = and i32 %15, %13
  %17 = zext i32 %16 to i64
  %18 = getelementptr inbounds nuw %struct.Abc_ZddEnt_, ptr %9, i64 %17
  %19 = getelementptr inbounds nuw i8, ptr %0, i64 56
  %20 = load i32, ptr %19, align 8, !tbaa !40
  %21 = add nsw i32 %20, 1
  store i32 %21, ptr %19, align 8, !tbaa !40
  %22 = load i32, ptr %18, align 4, !tbaa !42
  %23 = icmp eq i32 %22, %1
  br i1 %23, label %24, label %Abc_ZddCacheLookup.exit.thread

24:                                               ; preds = %7
  %25 = getelementptr inbounds nuw i8, ptr %18, i64 4
  %26 = load i32, ptr %25, align 4, !tbaa !44
  %27 = icmp eq i32 %26, %2
  br i1 %27, label %28, label %Abc_ZddCacheLookup.exit.thread

28:                                               ; preds = %24
  %29 = getelementptr inbounds nuw i8, ptr %18, i64 8
  %30 = load i32, ptr %29, align 4, !tbaa !45
  %31 = icmp eq i32 %30, 9
  br i1 %31, label %Abc_ZddCacheLookup.exit, label %Abc_ZddCacheLookup.exit.thread

Abc_ZddCacheLookup.exit:                          ; preds = %28
  %32 = getelementptr inbounds nuw i8, ptr %18, i64 12
  %33 = load i32, ptr %32, align 4, !tbaa !46
  %34 = icmp sgt i32 %33, -1
  br i1 %34, label %121, label %Abc_ZddCacheLookup.exit.thread

Abc_ZddCacheLookup.exit.thread:                   ; preds = %7, %24, %28, %Abc_ZddCacheLookup.exit
  %35 = getelementptr i8, ptr %0, i64 48
  %.val = load ptr, ptr %35, align 8, !tbaa !18
  %36 = zext nneg i32 %1 to i64
  %37 = getelementptr inbounds nuw %struct.Abc_ZddObj_, ptr %.val, i64 %36
  %38 = getelementptr inbounds nuw i8, ptr %37, i64 8
  %39 = load i32, ptr %38, align 4, !tbaa !21
  %40 = tail call i32 @Abc_ZddThresh(ptr noundef nonnull %0, i32 noundef %39, i32 noundef %2)
  %41 = getelementptr inbounds nuw i8, ptr %37, i64 4
  %42 = load i32, ptr %41, align 4, !tbaa !19
  %43 = add nsw i32 %2, -1
  %44 = tail call i32 @Abc_ZddThresh(ptr noundef nonnull %0, i32 noundef %42, i32 noundef %43)
  %45 = load i32, ptr %37, align 4
  %46 = and i32 %45, 2147483647
  %47 = icmp eq i32 %44, 0
  br i1 %47, label %Abc_ZddUniqueCreate.exit, label %48

48:                                               ; preds = %Abc_ZddCacheLookup.exit.thread
  %49 = getelementptr inbounds nuw i8, ptr %0, i64 24
  %50 = load ptr, ptr %49, align 8, !tbaa !10
  %51 = mul nuw nsw i32 %46, 12582917
  %52 = mul nsw i32 %44, 4256249
  %53 = mul nsw i32 %40, 741457
  %54 = add i32 %52, %53
  %55 = add i32 %54, %51
  %56 = getelementptr inbounds nuw i8, ptr %0, i64 16
  %57 = load i32, ptr %56, align 8, !tbaa !17
  %58 = and i32 %57, %55
  %59 = zext i32 %58 to i64
  %60 = getelementptr inbounds nuw i32, ptr %50, i64 %59
  %61 = load i32, ptr %60, align 4, !tbaa !3
  %.not41.i = icmp eq i32 %61, 0
  br i1 %.not41.i, label %._crit_edge.i, label %.lr.ph.i

.lr.ph.i:                                         ; preds = %48
  %62 = load ptr, ptr %35, align 8, !tbaa !18
  %63 = getelementptr inbounds nuw i8, ptr %0, i64 32
  br label %64

64:                                               ; preds = %79, %.lr.ph.i
  %65 = phi i32 [ %61, %.lr.ph.i ], [ %82, %79 ]
  %66 = sext i32 %65 to i64
  %67 = getelementptr inbounds %struct.Abc_ZddObj_, ptr %62, i64 %66
  %68 = load i32, ptr %67, align 4
  %69 = and i32 %68, 2147483647
  %70 = icmp eq i32 %69, %46
  br i1 %70, label %71, label %79

71:                                               ; preds = %64
  %72 = getelementptr inbounds nuw i8, ptr %67, i64 4
  %73 = load i32, ptr %72, align 4, !tbaa !19
  %74 = icmp eq i32 %73, %44
  br i1 %74, label %75, label %79

75:                                               ; preds = %71
  %76 = getelementptr inbounds nuw i8, ptr %67, i64 8
  %77 = load i32, ptr %76, align 4, !tbaa !21
  %78 = icmp eq i32 %77, %40
  br i1 %78, label %Abc_ZddUniqueCreate.exit, label %79

79:                                               ; preds = %75, %71, %64
  %80 = load ptr, ptr %63, align 8, !tbaa !22
  %81 = getelementptr inbounds i32, ptr %80, i64 %66
  %82 = load i32, ptr %81, align 4, !tbaa !3
  %.not.i = icmp eq i32 %82, 0
  br i1 %.not.i, label %._crit_edge.i.loopexit, label %64, !llvm.loop !23

._crit_edge.i.loopexit:                           ; preds = %79
  %83 = getelementptr inbounds i32, ptr %80, i64 %66
  br label %._crit_edge.i

._crit_edge.i:                                    ; preds = %._crit_edge.i.loopexit, %48
  %.0.lcssa.i = phi ptr [ %60, %48 ], [ %83, %._crit_edge.i.loopexit ]
  %84 = getelementptr inbounds nuw i8, ptr %0, i64 4
  %85 = load i32, ptr %84, align 4, !tbaa !24
  %86 = getelementptr inbounds nuw i8, ptr %0, i64 8
  %87 = load i32, ptr %86, align 8, !tbaa !25
  %88 = icmp eq i32 %85, %87
  br i1 %88, label %89, label %93

89:                                               ; preds = %._crit_edge.i
  %90 = tail call i32 (ptr, ...) @printf(ptr noundef nonnull dereferenceable(1) @.str.16, i32 noundef %85)
  %91 = load ptr, ptr @stdout, align 8, !tbaa !26
  %92 = tail call i32 @fflush(ptr noundef %91)
  %.pre.i = load i32, ptr %84, align 4, !tbaa !24
  br label %93

93:                                               ; preds = %89, %._crit_edge.i
  %94 = phi i32 [ %.pre.i, %89 ], [ %85, %._crit_edge.i ]
  %95 = add nsw i32 %94, 1
  store i32 %95, ptr %84, align 4, !tbaa !24
  store i32 %94, ptr %.0.lcssa.i, align 4, !tbaa !3
  %96 = load ptr, ptr %35, align 8, !tbaa !18
  %97 = sext i32 %94 to i64
  %98 = getelementptr inbounds %struct.Abc_ZddObj_, ptr %96, i64 %97
  %99 = load i32, ptr %98, align 4
  %100 = and i32 %99, -2147483648
  %101 = or disjoint i32 %100, %46
  store i32 %101, ptr %98, align 4
  %102 = load ptr, ptr %35, align 8, !tbaa !18
  %103 = load i32, ptr %.0.lcssa.i, align 4, !tbaa !3
  %104 = sext i32 %103 to i64
  %105 = getelementptr inbounds %struct.Abc_ZddObj_, ptr %102, i64 %104, i32 1
  store i32 %44, ptr %105, align 4, !tbaa !19
  %106 = load i32, ptr %.0.lcssa.i, align 4, !tbaa !3
  %107 = sext i32 %106 to i64
  %108 = getelementptr inbounds %struct.Abc_ZddObj_, ptr %102, i64 %107, i32 2
  store i32 %40, ptr %108, align 4, !tbaa !21
  %109 = load i32, ptr %.0.lcssa.i, align 4, !tbaa !3
  br label %Abc_ZddUniqueCreate.exit

Abc_ZddUniqueCreate.exit:                         ; preds = %75, %Abc_ZddCacheLookup.exit.thread, %93
  %.035.i = phi i32 [ %40, %Abc_ZddCacheLookup.exit.thread ], [ %109, %93 ], [ %65, %75 ]
  %110 = load ptr, ptr %8, align 8, !tbaa !31
  %111 = load i32, ptr %14, align 4, !tbaa !30
  %112 = and i32 %111, %13
  %113 = zext i32 %112 to i64
  %114 = getelementptr inbounds nuw %struct.Abc_ZddEnt_, ptr %110, i64 %113
  store i32 %1, ptr %114, align 4, !tbaa !42
  %115 = getelementptr inbounds nuw i8, ptr %114, i64 4
  store i32 %2, ptr %115, align 4, !tbaa !44
  %116 = getelementptr inbounds nuw i8, ptr %114, i64 8
  store i32 9, ptr %116, align 4, !tbaa !45
  %117 = getelementptr inbounds nuw i8, ptr %114, i64 12
  store i32 %.035.i, ptr %117, align 4, !tbaa !46
  %118 = getelementptr inbounds nuw i8, ptr %0, i64 60
  %119 = load i32, ptr %118, align 4, !tbaa !41
  %120 = add nsw i32 %119, 1
  store i32 %120, ptr %118, align 4, !tbaa !41
  br label %121

121:                                              ; preds = %Abc_ZddCacheLookup.exit, %5, %3, %Abc_ZddUniqueCreate.exit
  %.0 = phi i32 [ %.035.i, %Abc_ZddUniqueCreate.exit ], [ %1, %3 ], [ 0, %5 ], [ %33, %Abc_ZddCacheLookup.exit ]
  ret i32 %.0
}